target datalayout = "e-m:e-p270:32:32-p271:32:32-p272:64:64-i64:64-i128:128-f80:128-n8:16:32:64-S128"
target triple = "x86_64-pc-linux-gnu"

%"class.std::shared_ptr" = type { %"class.std::__shared_ptr" }
%"class.std::__shared_ptr" = type { ptr, %"class.std::__shared_count" }
%"class.std::__shared_count" = type { ptr }
%"class.std::locale" = type { ptr }
%"class.std::__cxx11::basic_string" = type { %"struct.std::__cxx11::basic_string<char>::_Alloc_hider", i64, %union.anon }
%"struct.std::__cxx11::basic_string<char>::_Alloc_hider" = type { ptr }
%union.anon = type { i64, [8 x i8] }
%"class.std::ios_base" = type { ptr, i64, i64, i32, i32, i32, ptr, %"struct.std::ios_base::_Words", [8 x %"struct.std::ios_base::_Words"], i32, ptr, %"class.std::locale" }
%"struct.std::ios_base::_Words" = type { ptr, i64 }
%"class.std::vector" = type { %"struct.std::_Vector_base" }
%"struct.std::_Vector_base" = type { %"struct.std::_Vector_base<std::__cxx11::basic_string<char>, std::allocator<std::__cxx11::basic_string<char>>>::_Vector_impl" }
%"struct.std::_Vector_base<std::__cxx11::basic_string<char>, std::allocator<std::__cxx11::basic_string<char>>>::_Vector_impl" = type { %"struct.std::_Vector_base<std::__cxx11::basic_string<char>, std::allocator<std::__cxx11::basic_string<char>>>::_Vector_impl_data" }
%"struct.std::_Vector_base<std::__cxx11::basic_string<char>, std::allocator<std::__cxx11::basic_string<char>>>::_Vector_impl_data" = type { ptr, ptr, ptr }
%"class.OpenColorIO_v2_5dev::ColorSpaceInfo" = type { ptr, %"class.std::__cxx11::basic_string", %"class.std::__cxx11::basic_string", %"class.std::__cxx11::basic_string", %"class.std::__cxx11::basic_string", %"class.std::vector" }
%"class.std::shared_ptr.3" = type { %"class.std::__shared_ptr.4" }
%"class.std::__shared_ptr.4" = type { ptr, %"class.std::__shared_count" }
%"class.OpenColorIO_v2_5dev::ColorSpaceMenuParametersImpl" = type { %"class.OpenColorIO_v2_5dev::ColorSpaceMenuParameters", %"class.std::shared_ptr.3", %"class.std::__cxx11::basic_string", %"class.std::__cxx11::basic_string", %"class.std::__cxx11::basic_string", %"class.std::__cxx11::basic_string", i8, i8, i8, i32, %"class.std::vector" }
%"class.OpenColorIO_v2_5dev::ColorSpaceMenuParameters" = type { ptr }
%"class.OpenColorIO_v2_5dev::ColorSpaceMenuHelperImpl" = type { %"class.OpenColorIO_v2_5dev::ColorSpaceMenuHelper", %"class.OpenColorIO_v2_5dev::ColorSpaceMenuParametersImpl", %"class.std::vector.22" }
%"class.OpenColorIO_v2_5dev::ColorSpaceMenuHelper" = type { ptr }
%"class.std::vector.22" = type { %"struct.std::_Vector_base.23" }
%"struct.std::_Vector_base.23" = type { %"struct.std::_Vector_base<std::shared_ptr<const OpenColorIO_v2_5dev::ColorSpaceInfo>, std::allocator<std::shared_ptr<const OpenColorIO_v2_5dev::ColorSpaceInfo>>>::_Vector_impl" }
%"struct.std::_Vector_base<std::shared_ptr<const OpenColorIO_v2_5dev::ColorSpaceInfo>, std::allocator<std::shared_ptr<const OpenColorIO_v2_5dev::ColorSpaceInfo>>>::_Vector_impl" = type { %"struct.std::_Vector_base<std::shared_ptr<const OpenColorIO_v2_5dev::ColorSpaceInfo>, std::allocator<std::shared_ptr<const OpenColorIO_v2_5dev::ColorSpaceInfo>>>::_Vector_impl_data" }
%"struct.std::_Vector_base<std::shared_ptr<const OpenColorIO_v2_5dev::ColorSpaceInfo>, std::allocator<std::shared_ptr<const OpenColorIO_v2_5dev::ColorSpaceInfo>>>::_Vector_impl_data" = type { ptr, ptr, ptr }
%"class.__gnu_cxx::__normal_iterator.34" = type { ptr }

@.str.18 = private unnamed_addr constant [3 x i8] c", \00", align 1
@.str.19 = private unnamed_addr constant [2 x i8] c"]\00", align 1
@.str.27 = private unnamed_addr constant [19 x i8] c", color spaces = [\00", align 1

; Function Attrs: mustprogress nounwind uwtable
define available_externally noundef ptr @_ZNKSt7__cxx1112basic_stringIcSt11char_traitsIcESaIcEE7_M_dataEv(ptr noundef nonnull align 8 dereferenceable(32) %0) #4 align 2 {
  %2 = alloca ptr, align 8
  store ptr %0, ptr %2, align 8, !tbaa !29
  %3 = load ptr, ptr %2, align 8
  %4 = getelementptr inbounds nuw %"class.std::__cxx11::basic_string", ptr %3, i32 0, i32 0
  %5 = getelementptr inbounds nuw %"struct.std::__cxx11::basic_string<char>::_Alloc_hider", ptr %4, i32 0, i32 0
  %6 = load ptr, ptr %5, align 8, !tbaa !266
  ret ptr %6
}

; Function Attrs: mustprogress nounwind uwtable
define linkonce_odr hidden noundef ptr @_ZNKSt12__shared_ptrIKN19OpenColorIO_v2_5dev14ColorSpaceInfoELN9__gnu_cxx12_Lock_policyE2EE3getEv(ptr noundef nonnull align 8 dereferenceable(16) %0) #4 comdat align 2 {
  %2 = alloca ptr, align 8
  store ptr %0, ptr %2, align 8, !tbaa !201
  %3 = load ptr, ptr %2, align 8
  %4 = getelementptr inbounds nuw %"class.std::__shared_ptr", ptr %3, i32 0, i32 0
  %5 = load ptr, ptr %4, align 8, !tbaa !203
  ret ptr %5
}

; Function Attrs: inlinehint mustprogress nounwind uwtable
define linkonce_odr noundef i32 @_ZStorSt12_Ios_IostateS_(i32 noundef %0, i32 noundef %1) #8 comdat {
  %3 = alloca i32, align 4
  %4 = alloca i32, align 4
  store i32 %0, ptr %3, align 4, !tbaa !276
  store i32 %1, ptr %4, align 4, !tbaa !276
  %5 = load i32, ptr %3, align 4, !tbaa !276
  %6 = load i32, ptr %4, align 4, !tbaa !276
  %7 = or i32 %5, %6
  ret i32 %7
}

; Function Attrs: mustprogress nounwind uwtable
define available_externally noundef i32 @_ZNKSt9basic_iosIcSt11char_traitsIcEE7rdstateEv(ptr noundef nonnull align 8 dereferenceable(264) %0) #4 align 2 {
  %2 = alloca ptr, align 8
  store ptr %0, ptr %2, align 8, !tbaa !217
  %3 = load ptr, ptr %2, align 8
  %4 = getelementptr inbounds nuw %"class.std::ios_base", ptr %3, i32 0, i32 5
  %5 = load i32, ptr %4, align 8, !tbaa !277
  ret i32 %5
}

; Function Attrs: mustprogress nounwind uwtable
define available_externally noundef ptr @_ZNKSt7__cxx1112basic_stringIcSt11char_traitsIcESaIcEE5c_strEv(ptr noundef nonnull align 8 dereferenceable(32) %0) #4 align 2 {
  %2 = alloca ptr, align 8
  store ptr %0, ptr %2, align 8, !tbaa !29
  %3 = load ptr, ptr %2, align 8
  %4 = call noundef ptr @_ZNKSt7__cxx1112basic_stringIcSt11char_traitsIcESaIcEE7_M_dataEv(ptr noundef nonnull align 8 dereferenceable(32) %3)
  ret ptr %4
}

; Function Attrs: mustprogress nounwind uwtable
define linkonce_odr hidden noundef ptr @_ZNKSt19__shared_ptr_accessIKN19OpenColorIO_v2_5dev14ColorSpaceInfoELN9__gnu_cxx12_Lock_policyE2ELb0ELb0EE6_M_getEv(ptr noundef nonnull align 1 dereferenceable(1) %0) #4 comdat align 2 {
  %2 = alloca ptr, align 8
  store ptr %0, ptr %2, align 8, !tbaa !157
  %3 = load ptr, ptr %2, align 8
  %4 = call noundef ptr @_ZNKSt12__shared_ptrIKN19OpenColorIO_v2_5dev14ColorSpaceInfoELN9__gnu_cxx12_Lock_policyE2EE3getEv(ptr noundef nonnull align 8 dereferenceable(16) %3) #12
  ret ptr %4
}

; Function Attrs: mustprogress nounwind uwtable
define linkonce_odr hidden noundef nonnull align 8 dereferenceable(8) ptr @_ZNK9__gnu_cxx17__normal_iteratorIPKSt10shared_ptrIKN19OpenColorIO_v2_5dev14ColorSpaceInfoEESt6vectorIS5_SaIS5_EEE4baseEv(ptr noundef nonnull align 8 dereferenceable(8) %0) #4 comdat align 2 {
  %2 = alloca ptr, align 8
  store ptr %0, ptr %2, align 8, !tbaa !166
  %3 = load ptr, ptr %2, align 8
  %4 = getelementptr inbounds nuw %"class.__gnu_cxx::__normal_iterator.34", ptr %3, i32 0, i32 0
  ret ptr %4
}

; Function Attrs: mustprogress nounwind uwtable
define linkonce_odr hidden void @_ZN9__gnu_cxx17__normal_iteratorIPKSt10shared_ptrIKN19OpenColorIO_v2_5dev14ColorSpaceInfoEESt6vectorIS5_SaIS5_EEEC2ERKS7_(ptr noundef nonnull align 8 dereferenceable(8) %0, ptr noundef nonnull align 8 dereferenceable(8) %1) unnamed_addr #4 comdat align 2 {
  %3 = alloca ptr, align 8
  %4 = alloca ptr, align 8
  store ptr %0, ptr %3, align 8, !tbaa !166
  store ptr %1, ptr %4, align 8, !tbaa !512
  %5 = load ptr, ptr %3, align 8
  %6 = getelementptr inbounds nuw %"class.__gnu_cxx::__normal_iterator.34", ptr %5, i32 0, i32 0
  %7 = load ptr, ptr %4, align 8, !tbaa !512
  %8 = load ptr, ptr %7, align 8, !tbaa !14
  store ptr %8, ptr %6, align 8, !tbaa !168
  ret void
}

; Function Attrs: mustprogress nounwind uwtable
define linkonce_odr hidden noundef i64 @_ZNSt11char_traitsIcE6lengthEPKc(ptr noundef %0) #4 comdat align 2 {
  %2 = alloca ptr, align 8
  store ptr %0, ptr %2, align 8, !tbaa !19
  %3 = load ptr, ptr %2, align 8, !tbaa !19
  %4 = call i64 @strlen(ptr noundef %3) #12
  ret i64 %4
}

; Function Attrs: mustprogress uwtable
define available_externally void @_ZNSt9basic_iosIcSt11char_traitsIcEE8setstateESt12_Ios_Iostate(ptr noundef nonnull align 8 dereferenceable(264) %0, i32 noundef %1) #0 align 2 {
  %3 = alloca ptr, align 8
  %4 = alloca i32, align 4
  store ptr %0, ptr %3, align 8, !tbaa !217
  store i32 %1, ptr %4, align 4, !tbaa !276
  %5 = load ptr, ptr %3, align 8
  %6 = call noundef i32 @_ZNKSt9basic_iosIcSt11char_traitsIcEE7rdstateEv(ptr noundef nonnull align 8 dereferenceable(264) %5)
  %7 = load i32, ptr %4, align 4, !tbaa !276
  %8 = call noundef i32 @_ZStorSt12_Ios_IostateS_(i32 noundef %6, i32 noundef %7)
  call void @_ZNSt9basic_iosIcSt11char_traitsIcEE5clearESt12_Ios_Iostate(ptr noundef nonnull align 8 dereferenceable(264) %5, i32 noundef %8)
  ret void
}

; Function Attrs: mustprogress nounwind uwtable
define linkonce_odr hidden noundef nonnull align 8 dereferenceable(8) ptr @_ZN9__gnu_cxx17__normal_iteratorIPKSt10shared_ptrIKN19OpenColorIO_v2_5dev14ColorSpaceInfoEESt6vectorIS5_SaIS5_EEEppEv(ptr noundef nonnull align 8 dereferenceable(8) %0) #4 comdat align 2 {
  %2 = alloca ptr, align 8
  store ptr %0, ptr %2, align 8, !tbaa !166
  %3 = load ptr, ptr %2, align 8
  %4 = getelementptr inbounds nuw %"class.__gnu_cxx::__normal_iterator.34", ptr %3, i32 0, i32 0
  %5 = load ptr, ptr %4, align 8, !tbaa !168
  %6 = getelementptr inbounds nuw %"class.std::shared_ptr", ptr %5, i32 1
  store ptr %6, ptr %4, align 8, !tbaa !168
  ret ptr %3
}

; Function Attrs: mustprogress nounwind uwtable
define hidden noundef ptr @_ZNK19OpenColorIO_v2_5dev14ColorSpaceInfo7getNameEv(ptr noundef nonnull align 8 dereferenceable(160) %0) #4 align 2 {
  %2 = alloca ptr, align 8
  store ptr %0, ptr %2, align 8, !tbaa !10
  %3 = load ptr, ptr %2, align 8
  %4 = getelementptr inbounds nuw %"class.OpenColorIO_v2_5dev::ColorSpaceInfo", ptr %3, i32 0, i32 1
  %5 = call noundef ptr @_ZNKSt7__cxx1112basic_stringIcSt11char_traitsIcESaIcEE5c_strEv(ptr noundef nonnull align 8 dereferenceable(32) %4) #12
  ret ptr %5
}

; Function Attrs: mustprogress nounwind uwtable
define linkonce_odr hidden noundef ptr @_ZNKSt19__shared_ptr_accessIKN19OpenColorIO_v2_5dev14ColorSpaceInfoELN9__gnu_cxx12_Lock_policyE2ELb0ELb0EEptEv(ptr noundef nonnull align 1 dereferenceable(1) %0) #4 comdat align 2 {
  %2 = alloca ptr, align 8
  store ptr %0, ptr %2, align 8, !tbaa !157
  %3 = load ptr, ptr %2, align 8
  %4 = call noundef ptr @_ZNKSt19__shared_ptr_accessIKN19OpenColorIO_v2_5dev14ColorSpaceInfoELN9__gnu_cxx12_Lock_policyE2ELb0ELb0EE6_M_getEv(ptr noundef nonnull align 1 dereferenceable(1) %3) #12
  ret ptr %4
}

; Function Attrs: mustprogress nounwind uwtable
define linkonce_odr hidden noundef nonnull align 8 dereferenceable(16) ptr @_ZNK9__gnu_cxx17__normal_iteratorIPKSt10shared_ptrIKN19OpenColorIO_v2_5dev14ColorSpaceInfoEESt6vectorIS5_SaIS5_EEEdeEv(ptr noundef nonnull align 8 dereferenceable(8) %0) #4 comdat align 2 {
  %2 = alloca ptr, align 8
  store ptr %0, ptr %2, align 8, !tbaa !166
  %3 = load ptr, ptr %2, align 8
  %4 = getelementptr inbounds nuw %"class.__gnu_cxx::__normal_iterator.34", ptr %3, i32 0, i32 0
  %5 = load ptr, ptr %4, align 8, !tbaa !168
  ret ptr %5
}

; Function Attrs: inlinehint mustprogress nounwind uwtable
define linkonce_odr hidden noundef zeroext i1 @_ZN9__gnu_cxxneIPKSt10shared_ptrIKN19OpenColorIO_v2_5dev14ColorSpaceInfoEESt6vectorIS5_SaIS5_EEEEbRKNS_17__normal_iteratorIT_T0_EESG_(ptr noundef nonnull align 8 dereferenceable(8) %0, ptr noundef nonnull align 8 dereferenceable(8) %1) #8 comdat {
  %3 = alloca ptr, align 8
  %4 = alloca ptr, align 8
  store ptr %0, ptr %3, align 8, !tbaa !166
  store ptr %1, ptr %4, align 8, !tbaa !166
  %5 = load ptr, ptr %3, align 8, !tbaa !166
  %6 = call noundef nonnull align 8 dereferenceable(8) ptr @_ZNK9__gnu_cxx17__normal_iteratorIPKSt10shared_ptrIKN19OpenColorIO_v2_5dev14ColorSpaceInfoEESt6vectorIS5_SaIS5_EEE4baseEv(ptr noundef nonnull align 8 dereferenceable(8) %5) #12
  %7 = load ptr, ptr %6, align 8, !tbaa !14
  %8 = load ptr, ptr %4, align 8, !tbaa !166
  %9 = call noundef nonnull align 8 dereferenceable(8) ptr @_ZNK9__gnu_cxx17__normal_iteratorIPKSt10shared_ptrIKN19OpenColorIO_v2_5dev14ColorSpaceInfoEESt6vectorIS5_SaIS5_EEE4baseEv(ptr noundef nonnull align 8 dereferenceable(8) %8) #12
  %10 = load ptr, ptr %9, align 8, !tbaa !14
  %11 = icmp ne ptr %7, %10
  ret i1 %11
}

; Function Attrs: mustprogress nounwind uwtable
define linkonce_odr hidden ptr @_ZNKSt6vectorISt10shared_ptrIKN19OpenColorIO_v2_5dev14ColorSpaceInfoEESaIS4_EE3endEv(ptr noundef nonnull align 8 dereferenceable(24) %0) #4 comdat align 2 {
  %2 = alloca %"class.__gnu_cxx::__normal_iterator.34", align 8
  %3 = alloca ptr, align 8
  store ptr %0, ptr %3, align 8, !tbaa !133
  %4 = load ptr, ptr %3, align 8
  %5 = getelementptr inbounds nuw %"struct.std::_Vector_base.23", ptr %4, i32 0, i32 0
  %6 = getelementptr inbounds nuw %"struct.std::_Vector_base<std::shared_ptr<const OpenColorIO_v2_5dev::ColorSpaceInfo>, std::allocator<std::shared_ptr<const OpenColorIO_v2_5dev::ColorSpaceInfo>>>::_Vector_impl_data", ptr %5, i32 0, i32 1
  call void @_ZN9__gnu_cxx17__normal_iteratorIPKSt10shared_ptrIKN19OpenColorIO_v2_5dev14ColorSpaceInfoEESt6vectorIS5_SaIS5_EEEC2ERKS7_(ptr noundef nonnull align 8 dereferenceable(8) %2, ptr noundef nonnull align 8 dereferenceable(8) %6) #12
  %7 = getelementptr inbounds nuw %"class.__gnu_cxx::__normal_iterator.34", ptr %2, i32 0, i32 0
  %8 = load ptr, ptr %7, align 8
  ret ptr %8
}

; Function Attrs: mustprogress nounwind uwtable
define linkonce_odr hidden ptr @_ZNKSt6vectorISt10shared_ptrIKN19OpenColorIO_v2_5dev14ColorSpaceInfoEESaIS4_EE5beginEv(ptr noundef nonnull align 8 dereferenceable(24) %0) #4 comdat align 2 {
  %2 = alloca %"class.__gnu_cxx::__normal_iterator.34", align 8
  %3 = alloca ptr, align 8
  store ptr %0, ptr %3, align 8, !tbaa !133
  %4 = load ptr, ptr %3, align 8
  %5 = getelementptr inbounds nuw %"struct.std::_Vector_base.23", ptr %4, i32 0, i32 0
  %6 = getelementptr inbounds nuw %"struct.std::_Vector_base<std::shared_ptr<const OpenColorIO_v2_5dev::ColorSpaceInfo>, std::allocator<std::shared_ptr<const OpenColorIO_v2_5dev::ColorSpaceInfo>>>::_Vector_impl_data", ptr %5, i32 0, i32 0
  call void @_ZN9__gnu_cxx17__normal_iteratorIPKSt10shared_ptrIKN19OpenColorIO_v2_5dev14ColorSpaceInfoEESt6vectorIS5_SaIS5_EEEC2ERKS7_(ptr noundef nonnull align 8 dereferenceable(8) %2, ptr noundef nonnull align 8 dereferenceable(8) %6) #12
  %7 = getelementptr inbounds nuw %"class.__gnu_cxx::__normal_iterator.34", ptr %2, i32 0, i32 0
  %8 = load ptr, ptr %7, align 8
  ret ptr %8
}

; Function Attrs: inlinehint mustprogress uwtable
define available_externally noundef nonnull align 8 dereferenceable(8) ptr @_ZStlsISt11char_traitsIcEERSt13basic_ostreamIcT_ES5_PKc(ptr noundef nonnull align 8 dereferenceable(8) %0, ptr noundef %1) #7 {
  %3 = alloca ptr, align 8
  %4 = alloca ptr, align 8
  store ptr %0, ptr %3, align 8, !tbaa !25
  store ptr %1, ptr %4, align 8, !tbaa !19
  %5 = load ptr, ptr %4, align 8, !tbaa !19
  %6 = icmp ne ptr %5, null
  br i1 %6, label %13, label %7

7:                                                ; preds = %2
  %8 = load ptr, ptr %3, align 8, !tbaa !25
  %9 = load ptr, ptr %8, align 8, !tbaa !12
  %10 = getelementptr i8, ptr %9, i64 -24
  %11 = load i64, ptr %10, align 8
  %12 = getelementptr inbounds i8, ptr %8, i64 %11
  call void @_ZNSt9basic_iosIcSt11char_traitsIcEE8setstateESt12_Ios_Iostate(ptr noundef nonnull align 8 dereferenceable(264) %12, i32 noundef 1)
  br label %19

13:                                               ; preds = %2
  %14 = load ptr, ptr %3, align 8, !tbaa !25
  %15 = load ptr, ptr %4, align 8, !tbaa !19
  %16 = load ptr, ptr %4, align 8, !tbaa !19
  %17 = call noundef i64 @_ZNSt11char_traitsIcE6lengthEPKc(ptr noundef %16)
  %18 = call noundef nonnull align 8 dereferenceable(8) ptr @_ZSt16__ostream_insertIcSt11char_traitsIcEERSt13basic_ostreamIT_T0_ES6_PKS3_l(ptr noundef nonnull align 8 dereferenceable(8) %14, ptr noundef %15, i64 noundef %17)
  br label %19

19:                                               ; preds = %13, %7
  %20 = load ptr, ptr %3, align 8, !tbaa !25
  ret ptr %20
}

; Function Attrs: mustprogress uwtable
define hidden noundef nonnull align 8 dereferenceable(8) ptr @_ZNK19OpenColorIO_v2_5dev24ColorSpaceMenuHelperImpl9serializeERSo(ptr noundef nonnull align 8 dereferenceable(216) %0, ptr noundef nonnull align 8 dereferenceable(8) %1) #0 align 2 {
  %3 = alloca ptr, align 8
  %4 = alloca ptr, align 8
  %5 = alloca i8, align 1
  %6 = alloca ptr, align 8
  %7 = alloca %"class.__gnu_cxx::__normal_iterator.34", align 8
  %8 = alloca %"class.__gnu_cxx::__normal_iterator.34", align 8
  %9 = alloca ptr, align 8
  store ptr %0, ptr %3, align 8, !tbaa !127
  store ptr %1, ptr %4, align 8, !tbaa !25
  %10 = load ptr, ptr %3, align 8
  %11 = load ptr, ptr %4, align 8, !tbaa !25
  %12 = getelementptr inbounds nuw %"class.OpenColorIO_v2_5dev::ColorSpaceMenuHelperImpl", ptr %10, i32 0, i32 1
  %13 = call noundef nonnull align 8 dereferenceable(8) ptr @_ZN19OpenColorIO_v2_5devlsERSoRKNS_24ColorSpaceMenuParametersE(ptr noundef nonnull align 8 dereferenceable(8) %11, ptr noundef nonnull align 8 dereferenceable(8) %12)
  %14 = load ptr, ptr %4, align 8, !tbaa !25
  %15 = call noundef nonnull align 8 dereferenceable(8) ptr @_ZStlsISt11char_traitsIcEERSt13basic_ostreamIcT_ES5_PKc(ptr noundef nonnull align 8 dereferenceable(8) %14, ptr noundef @.str.27)
  call void @llvm.lifetime.start.p0(i64 1, ptr %5) #12
  store i8 1, ptr %5, align 1, !tbaa !46
  call void @llvm.lifetime.start.p0(i64 8, ptr %6) #12
  %16 = getelementptr inbounds nuw %"class.OpenColorIO_v2_5dev::ColorSpaceMenuHelperImpl", ptr %10, i32 0, i32 2
  store ptr %16, ptr %6, align 8, !tbaa !133
  call void @llvm.lifetime.start.p0(i64 8, ptr %7) #12
  %17 = load ptr, ptr %6, align 8, !tbaa !133
  %18 = call ptr @_ZNKSt6vectorISt10shared_ptrIKN19OpenColorIO_v2_5dev14ColorSpaceInfoEESaIS4_EE5beginEv(ptr noundef nonnull align 8 dereferenceable(24) %17) #12
  %19 = getelementptr inbounds nuw %"class.__gnu_cxx::__normal_iterator.34", ptr %7, i32 0, i32 0
  store ptr %18, ptr %19, align 8
  call void @llvm.lifetime.start.p0(i64 8, ptr %8) #12
  %20 = load ptr, ptr %6, align 8, !tbaa !133
  %21 = call ptr @_ZNKSt6vectorISt10shared_ptrIKN19OpenColorIO_v2_5dev14ColorSpaceInfoEESaIS4_EE3endEv(ptr noundef nonnull align 8 dereferenceable(24) %20) #12
  %22 = getelementptr inbounds nuw %"class.__gnu_cxx::__normal_iterator.34", ptr %8, i32 0, i32 0
  store ptr %21, ptr %22, align 8
  br label %23

23:                                               ; preds = %39, %2
  %24 = call noundef zeroext i1 @_ZN9__gnu_cxxneIPKSt10shared_ptrIKN19OpenColorIO_v2_5dev14ColorSpaceInfoEESt6vectorIS5_SaIS5_EEEEbRKNS_17__normal_iteratorIT_T0_EESG_(ptr noundef nonnull align 8 dereferenceable(8) %7, ptr noundef nonnull align 8 dereferenceable(8) %8) #12
  br i1 %24, label %26, label %25

25:                                               ; preds = %23
  call void @llvm.lifetime.end.p0(i64 8, ptr %8) #12
  call void @llvm.lifetime.end.p0(i64 8, ptr %7) #12
  call void @llvm.lifetime.end.p0(i64 8, ptr %6) #12
  br label %41

26:                                               ; preds = %23
  call void @llvm.lifetime.start.p0(i64 8, ptr %9) #12
  %27 = call noundef nonnull align 8 dereferenceable(16) ptr @_ZNK9__gnu_cxx17__normal_iteratorIPKSt10shared_ptrIKN19OpenColorIO_v2_5dev14ColorSpaceInfoEESt6vectorIS5_SaIS5_EEEdeEv(ptr noundef nonnull align 8 dereferenceable(8) %7) #12
  store ptr %27, ptr %9, align 8, !tbaa !14
  %28 = load i8, ptr %5, align 1, !tbaa !46, !range !84, !noundef !85
  %29 = trunc i8 %28 to i1
  br i1 %29, label %33, label %30

30:                                               ; preds = %26
  %31 = load ptr, ptr %4, align 8, !tbaa !25
  %32 = call noundef nonnull align 8 dereferenceable(8) ptr @_ZStlsISt11char_traitsIcEERSt13basic_ostreamIcT_ES5_PKc(ptr noundef nonnull align 8 dereferenceable(8) %31, ptr noundef @.str.18)
  br label %33

33:                                               ; preds = %30, %26
  %34 = load ptr, ptr %4, align 8, !tbaa !25
  %35 = load ptr, ptr %9, align 8, !tbaa !14
  %36 = call noundef ptr @_ZNKSt19__shared_ptr_accessIKN19OpenColorIO_v2_5dev14ColorSpaceInfoELN9__gnu_cxx12_Lock_policyE2ELb0ELb0EEptEv(ptr noundef nonnull align 1 dereferenceable(1) %35) #12
  %37 = call noundef ptr @_ZNK19OpenColorIO_v2_5dev14ColorSpaceInfo7getNameEv(ptr noundef nonnull align 8 dereferenceable(160) %36) #12
  %38 = call noundef nonnull align 8 dereferenceable(8) ptr @_ZStlsISt11char_traitsIcEERSt13basic_ostreamIcT_ES5_PKc(ptr noundef nonnull align 8 dereferenceable(8) %34, ptr noundef %37)
  store i8 0, ptr %5, align 1, !tbaa !46
  call void @llvm.lifetime.end.p0(i64 8, ptr %9) #12
  br label %39

39:                                               ; preds = %33
  %40 = call noundef nonnull align 8 dereferenceable(8) ptr @_ZN9__gnu_cxx17__normal_iteratorIPKSt10shared_ptrIKN19OpenColorIO_v2_5dev14ColorSpaceInfoEESt6vectorIS5_SaIS5_EEEppEv(ptr noundef nonnull align 8 dereferenceable(8) %7) #12
  br label %23

41:                                               ; preds = %25
  %42 = load ptr, ptr %4, align 8, !tbaa !25
  %43 = call noundef nonnull align 8 dereferenceable(8) ptr @_ZStlsISt11char_traitsIcEERSt13basic_ostreamIcT_ES5_PKc(ptr noundef nonnull align 8 dereferenceable(8) %42, ptr noundef @.str.19)
  %44 = load ptr, ptr %4, align 8, !tbaa !25
  call void @llvm.lifetime.end.p0(i64 1, ptr %5) #12
  ret ptr %44
}