; Function Attrs: mustprogress uwtable
define hidden noundef nonnull align 8 dereferenceable(8) ptr @_ZNK19OpenColorIO_v2_5dev24ColorSpaceMenuHelperImpl9serializeERSo(ptr noundef nonnull align 8 dereferenceable(216) %0, ptr noundef nonnull returned align 8 dereferenceable(8) %1) local_unnamed_addr #0 align 2 {
  %3 = getelementptr inbounds nuw i8, ptr %0, i64 8
  %4 = tail call noundef nonnull align 8 dereferenceable(8) ptr @_ZN19OpenColorIO_v2_5devlsERSoRKNS_24ColorSpaceMenuParametersE(ptr noundef nonnull align 8 dereferenceable(8) %1, ptr noundef nonnull align 8 dereferenceable(8) %3)
  %5 = tail call noundef nonnull align 8 dereferenceable(8) ptr @_ZSt16__ostream_insertIcSt11char_traitsIcEERSt13basic_ostreamIT_T0_ES6_PKS3_l(ptr noundef nonnull align 8 dereferenceable(8) %1, ptr noundef nonnull @.str.27, i64 noundef 18)
  %6 = getelementptr inbounds nuw i8, ptr %0, i64 192
  %7 = load ptr, ptr %6, align 8, !tbaa !169
  %8 = getelementptr inbounds nuw i8, ptr %0, i64 200
  %9 = load ptr, ptr %8, align 8, !tbaa !169
  %.not13 = icmp eq ptr %7, %9
  br i1 %.not13, label %._crit_edge, label %.lr.ph

._crit_edge:                                      ; preds = %_ZStlsISt11char_traitsIcEERSt13basic_ostreamIcT_ES5_PKc.exit, %2
  %10 = tail call noundef nonnull align 8 dereferenceable(8) ptr @_ZSt16__ostream_insertIcSt11char_traitsIcEERSt13basic_ostreamIT_T0_ES6_PKS3_l(ptr noundef nonnull align 8 dereferenceable(8) %1, ptr noundef nonnull @.str.19, i64 noundef 1)
  ret ptr %1

.lr.ph:                                           ; preds = %2, %_ZStlsISt11char_traitsIcEERSt13basic_ostreamIcT_ES5_PKc.exit
  %.015 = phi i1 [ false, %_ZStlsISt11char_traitsIcEERSt13basic_ostreamIcT_ES5_PKc.exit ], [ true, %2 ]
  %.sroa.010.014 = phi ptr [ %28, %_ZStlsISt11char_traitsIcEERSt13basic_ostreamIcT_ES5_PKc.exit ], [ %7, %2 ]
  br i1 %.015, label %13, label %11

11:                                               ; preds = %.lr.ph
  %12 = tail call noundef nonnull align 8 dereferenceable(8) ptr @_ZSt16__ostream_insertIcSt11char_traitsIcEERSt13basic_ostreamIT_T0_ES6_PKS3_l(ptr noundef nonnull align 8 dereferenceable(8) %1, ptr noundef nonnull @.str.18, i64 noundef 2)
  br label %13

13:                                               ; preds = %11, %.lr.ph
  %14 = load ptr, ptr %.sroa.010.014, align 8, !tbaa !3
  %15 = getelementptr inbounds nuw i8, ptr %14, i64 8
  %16 = load ptr, ptr %15, align 8, !tbaa !54
  %.not.i = icmp eq ptr %16, null
  br i1 %.not.i, label %17, label %25

17:                                               ; preds = %13
  %18 = load ptr, ptr %1, align 8, !tbaa !12
  %19 = getelementptr i8, ptr %18, i64 -24
  %20 = load i64, ptr %19, align 8
  %21 = getelementptr inbounds i8, ptr %1, i64 %20
  %22 = getelementptr inbounds nuw i8, ptr %21, i64 32
  %23 = load i32, ptr %22, align 8, !tbaa !25
  %24 = or i32 %23, 1
  tail call void @_ZNSt9basic_iosIcSt11char_traitsIcEE5clearESt12_Ios_Iostate(ptr noundef nonnull align 8 dereferenceable(264) %21, i32 noundef %24)
  br label %_ZStlsISt11char_traitsIcEERSt13basic_ostreamIcT_ES5_PKc.exit

25:                                               ; preds = %13
  %26 = tail call noundef i64 @strlen(ptr noundef nonnull dereferenceable(1) %16) #29
  %27 = tail call noundef nonnull align 8 dereferenceable(8) ptr @_ZSt16__ostream_insertIcSt11char_traitsIcEERSt13basic_ostreamIT_T0_ES6_PKS3_l(ptr noundef nonnull align 8 dereferenceable(8) %1, ptr noundef nonnull %16, i64 noundef %26)
  br label %_ZStlsISt11char_traitsIcEERSt13basic_ostreamIcT_ES5_PKc.exit

_ZStlsISt11char_traitsIcEERSt13basic_ostreamIcT_ES5_PKc.exit: ; preds = %17, %25
  %28 = getelementptr inbounds nuw i8, ptr %.sroa.010.014, i64 16
  %.not = icmp eq ptr %28, %9
  br i1 %.not, label %._crit_edge, label %.lr.ph
}